target datalayout = "e-m:e-p270:32:32-p271:32:32-p272:64:64-i64:64-i128:128-f80:128-n8:16:32:64-S128"
target triple = "x86_64-unknown-linux-gnu"

%"class.std::set.0" = type { %"class.std::_Rb_tree.1" }
%"class.std::_Rb_tree.1" = type { %"struct.std::_Rb_tree<QuantLib::Observer *, QuantLib::Observer *, std::_Identity<QuantLib::Observer *>, std::less<QuantLib::Observer *>>::_Rb_tree_impl" }
%"struct.std::_Rb_tree<QuantLib::Observer *, QuantLib::Observer *, std::_Identity<QuantLib::Observer *>, std::less<QuantLib::Observer *>>::_Rb_tree_impl" = type { [8 x i8], %"struct.std::_Rb_tree_header" }
%"struct.std::_Rb_tree_header" = type { %"struct.std::_Rb_tree_node_base", i64 }
%"struct.std::_Rb_tree_node_base" = type { i32, ptr, ptr, ptr }
%"class.std::set" = type { %"class.std::_Rb_tree" }
%"class.std::_Rb_tree" = type { %"struct.std::_Rb_tree<boost::shared_ptr<QuantLib::Observable>, boost::shared_ptr<QuantLib::Observable>, std::_Identity<boost::shared_ptr<QuantLib::Observable>>, std::less<boost::shared_ptr<QuantLib::Observable>>>::_Rb_tree_impl" }
%"struct.std::_Rb_tree<boost::shared_ptr<QuantLib::Observable>, boost::shared_ptr<QuantLib::Observable>, std::_Identity<boost::shared_ptr<QuantLib::Observable>>, std::less<boost::shared_ptr<QuantLib::Observable>>>::_Rb_tree_impl" = type { [8 x i8], %"struct.std::_Rb_tree_header" }
%"class.boost::detail::shared_count" = type { ptr }
%"class.QuantLib::Observable" = type { ptr, %"class.std::set.0" }
%"class.QuantLib::Observer" = type { ptr, %"class.std::set" }
%"class.QuantLib::Date" = type { i64 }
%"class.std::map" = type { %"class.std::_Rb_tree.12" }
%"class.std::_Rb_tree.12" = type { %"struct.std::_Rb_tree<std::__cxx11::basic_string<char>, std::pair<const std::__cxx11::basic_string<char>, boost::any>, std::_Select1st<std::pair<const std::__cxx11::basic_string<char>, boost::any>>, std::less<std::__cxx11::basic_string<char>>>::_Rb_tree_impl" }
%"struct.std::_Rb_tree<std::__cxx11::basic_string<char>, std::pair<const std::__cxx11::basic_string<char>, boost::any>, std::_Select1st<std::pair<const std::__cxx11::basic_string<char>, boost::any>>, std::less<std::__cxx11::basic_string<char>>>::_Rb_tree_impl" = type { [8 x i8], %"struct.std::_Rb_tree_header" }
%"class.boost::shared_ptr.18" = type { ptr, %"class.boost::detail::shared_count" }
%"class.boost::shared_ptr.19" = type { ptr, %"class.boost::detail::shared_count" }
%"class.QuantLib::Option::arguments" = type { %"class.QuantLib::PricingEngine::arguments", %"class.boost::shared_ptr.18", %"class.boost::shared_ptr.19" }
%"class.QuantLib::PricingEngine::arguments" = type { ptr }
%"class.QuantLib::FdHestonBarrierEngine" = type { %"class.QuantLib::GenericModelEngine", %"class.std::vector.29", i64, i64, i64, i64, %"struct.QuantLib::FdmSchemeDesc", %"class.boost::shared_ptr.27", double }
%"class.QuantLib::GenericModelEngine" = type { %"class.QuantLib::GenericEngine", %"class.QuantLib::Handle" }
%"class.QuantLib::GenericEngine" = type { %"class.QuantLib::PricingEngine", %"class.QuantLib::Observer", %"class.QuantLib::BarrierOption::arguments", %"class.QuantLib::OneAssetOption::results" }
%"class.QuantLib::PricingEngine" = type { %"class.QuantLib::Observable" }
%"class.QuantLib::BarrierOption::arguments" = type { %"class.QuantLib::Option::arguments", i32, double, double }
%"class.QuantLib::OneAssetOption::results" = type { %"class.QuantLib::Instrument::results", %"class.QuantLib::Greeks", %"class.QuantLib::MoreGreeks" }
%"class.QuantLib::Instrument::results" = type { %"class.QuantLib::PricingEngine::results", double, double, %"class.QuantLib::Date", %"class.std::map" }
%"class.QuantLib::PricingEngine::results" = type { ptr }
%"class.QuantLib::Greeks" = type { %"class.QuantLib::PricingEngine::results", double, double, double, double, double, double }
%"class.QuantLib::MoreGreeks" = type { %"class.QuantLib::PricingEngine::results", double, double, double, double, double }
%"class.QuantLib::Handle" = type { %"class.boost::shared_ptr.28" }
%"class.boost::shared_ptr.28" = type { ptr, %"class.boost::detail::shared_count" }
%"class.std::vector.29" = type { %"struct.std::_Vector_base.30" }
%"struct.std::_Vector_base.30" = type { %"struct.std::_Vector_base<boost::shared_ptr<QuantLib::Dividend>, std::allocator<boost::shared_ptr<QuantLib::Dividend>>>::_Vector_impl" }
%"struct.std::_Vector_base<boost::shared_ptr<QuantLib::Dividend>, std::allocator<boost::shared_ptr<QuantLib::Dividend>>>::_Vector_impl" = type { %"struct.std::_Vector_base<boost::shared_ptr<QuantLib::Dividend>, std::allocator<boost::shared_ptr<QuantLib::Dividend>>>::_Vector_impl_data" }
%"struct.std::_Vector_base<boost::shared_ptr<QuantLib::Dividend>, std::allocator<boost::shared_ptr<QuantLib::Dividend>>>::_Vector_impl_data" = type { ptr, ptr, ptr }
%"struct.QuantLib::FdmSchemeDesc" = type { i32, double, double }
%"class.boost::shared_ptr.27" = type { ptr, %"class.boost::detail::shared_count" }

; Function Attrs: mustprogress nounwind uwtable
define linkonce_odr void @_ZNSt15__new_allocatorIN5boost10shared_ptrIN8QuantLib8DividendEEEEC2Ev(ptr noundef nonnull align 1 dereferenceable(1) %this) unnamed_addr #1 comdat align 2 {
entry:
  %this.addr = alloca ptr, align 8
  store ptr %this, ptr %this.addr, align 8, !tbaa !3
  ret void
}

; Function Attrs: mustprogress nounwind uwtable
define linkonce_odr void @_ZNSt12_Vector_baseIN5boost10shared_ptrIN8QuantLib8DividendEEESaIS4_EE17_Vector_impl_dataC2Ev(ptr noundef nonnull align 8 dereferenceable(24) %this) unnamed_addr #1 comdat align 2 {
entry:
  %this.addr = alloca ptr, align 8
  store ptr %this, ptr %this.addr, align 8, !tbaa !3
  %this1 = load ptr, ptr %this.addr, align 8
  %_M_start = getelementptr inbounds nuw %"struct.std::_Vector_base<boost::shared_ptr<QuantLib::Dividend>, std::allocator<boost::shared_ptr<QuantLib::Dividend>>>::_Vector_impl_data", ptr %this1, i32 0, i32 0
  store ptr null, ptr %_M_start, align 8, !tbaa !208
  %_M_finish = getelementptr inbounds nuw %"struct.std::_Vector_base<boost::shared_ptr<QuantLib::Dividend>, std::allocator<boost::shared_ptr<QuantLib::Dividend>>>::_Vector_impl_data", ptr %this1, i32 0, i32 1
  store ptr null, ptr %_M_finish, align 8, !tbaa !209
  %_M_end_of_storage = getelementptr inbounds nuw %"struct.std::_Vector_base<boost::shared_ptr<QuantLib::Dividend>, std::allocator<boost::shared_ptr<QuantLib::Dividend>>>::_Vector_impl_data", ptr %this1, i32 0, i32 2
  store ptr null, ptr %_M_end_of_storage, align 8, !tbaa !210
  ret void
}

; Function Attrs: mustprogress nounwind uwtable
define linkonce_odr void @_ZNSaIN5boost10shared_ptrIN8QuantLib8DividendEEEEC2Ev(ptr noundef nonnull align 1 dereferenceable(1) %this) unnamed_addr #1 comdat align 2 {
entry:
  %this.addr = alloca ptr, align 8
  store ptr %this, ptr %this.addr, align 8, !tbaa !3
  %this1 = load ptr, ptr %this.addr, align 8
  call void @_ZNSt15__new_allocatorIN5boost10shared_ptrIN8QuantLib8DividendEEEEC2Ev(ptr noundef nonnull align 1 dereferenceable(1) %this1) #12
  ret void
}

; Function Attrs: mustprogress nounwind uwtable
define linkonce_odr void @_ZNSt12_Vector_baseIN5boost10shared_ptrIN8QuantLib8DividendEEESaIS4_EE12_Vector_implC2Ev(ptr noundef nonnull align 8 dereferenceable(24) %this) unnamed_addr #1 comdat align 2 {
entry:
  %this.addr = alloca ptr, align 8
  store ptr %this, ptr %this.addr, align 8, !tbaa !3
  %this1 = load ptr, ptr %this.addr, align 8
  call void @_ZNSaIN5boost10shared_ptrIN8QuantLib8DividendEEEEC2Ev(ptr noundef nonnull align 1 dereferenceable(1) %this1) #12
  call void @_ZNSt12_Vector_baseIN5boost10shared_ptrIN8QuantLib8DividendEEESaIS4_EE17_Vector_impl_dataC2Ev(ptr noundef nonnull align 8 dereferenceable(24) %this1) #12
  ret void
}

; Function Attrs: mustprogress nounwind uwtable
define linkonce_odr void @_ZN5boost6detail12shared_countC2EOS1_(ptr noundef nonnull align 8 dereferenceable(8) %this, ptr noundef nonnull align 8 dereferenceable(8) %r) unnamed_addr #1 comdat align 2 {
entry:
  %this.addr = alloca ptr, align 8
  %r.addr = alloca ptr, align 8
  store ptr %this, ptr %this.addr, align 8, !tbaa !3
  store ptr %r, ptr %r.addr, align 8, !tbaa !3
  %this1 = load ptr, ptr %this.addr, align 8
  %pi_ = getelementptr inbounds nuw %"class.boost::detail::shared_count", ptr %this1, i32 0, i32 0
  %0 = load ptr, ptr %r.addr, align 8, !tbaa !3
  %pi_2 = getelementptr inbounds nuw %"class.boost::detail::shared_count", ptr %0, i32 0, i32 0
  %1 = load ptr, ptr %pi_2, align 8, !tbaa !207
  store ptr %1, ptr %pi_, align 8, !tbaa !207
  %2 = load ptr, ptr %r.addr, align 8, !tbaa !3
  %pi_3 = getelementptr inbounds nuw %"class.boost::detail::shared_count", ptr %2, i32 0, i32 0
  store ptr null, ptr %pi_3, align 8, !tbaa !207
  ret void
}

; Function Attrs: mustprogress nounwind uwtable
define linkonce_odr void @_ZNSt12_Vector_baseIN5boost10shared_ptrIN8QuantLib8DividendEEESaIS4_EEC2Ev(ptr noundef nonnull align 8 dereferenceable(24) %this) unnamed_addr #1 comdat align 2 {
entry:
  %this.addr = alloca ptr, align 8
  store ptr %this, ptr %this.addr, align 8, !tbaa !3
  %this1 = load ptr, ptr %this.addr, align 8
  %_M_impl = getelementptr inbounds nuw %"struct.std::_Vector_base.30", ptr %this1, i32 0, i32 0
  call void @_ZNSt12_Vector_baseIN5boost10shared_ptrIN8QuantLib8DividendEEESaIS4_EE12_Vector_implC2Ev(ptr noundef nonnull align 8 dereferenceable(24) %_M_impl) #12
  ret void
}

; Function Attrs: mustprogress nounwind uwtable
define linkonce_odr void @_ZN5boost10shared_ptrIN8QuantLib21LocalVolTermStructureEEC2EOS3_(ptr noundef nonnull align 8 dereferenceable(16) %this, ptr noundef nonnull align 8 dereferenceable(16) %r) unnamed_addr #1 comdat align 2 {
entry:
  %this.addr = alloca ptr, align 8
  %r.addr = alloca ptr, align 8
  store ptr %this, ptr %this.addr, align 8, !tbaa !3
  store ptr %r, ptr %r.addr, align 8, !tbaa !3
  %this1 = load ptr, ptr %this.addr, align 8
  %px = getelementptr inbounds nuw %"class.boost::shared_ptr.27", ptr %this1, i32 0, i32 0
  %0 = load ptr, ptr %r.addr, align 8, !tbaa !3
  %px2 = getelementptr inbounds nuw %"class.boost::shared_ptr.27", ptr %0, i32 0, i32 0
  %1 = load ptr, ptr %px2, align 8, !tbaa !78
  store ptr %1, ptr %px, align 8, !tbaa !78
  %pn = getelementptr inbounds nuw %"class.boost::shared_ptr.27", ptr %this1, i32 0, i32 1
  %2 = load ptr, ptr %r.addr, align 8, !tbaa !3
  %pn3 = getelementptr inbounds nuw %"class.boost::shared_ptr.27", ptr %2, i32 0, i32 1
  call void @_ZN5boost6detail12shared_countC2EOS1_(ptr noundef nonnull align 8 dereferenceable(8) %pn, ptr noundef nonnull align 8 dereferenceable(8) %pn3) #12
  %3 = load ptr, ptr %r.addr, align 8, !tbaa !3
  %px4 = getelementptr inbounds nuw %"class.boost::shared_ptr.27", ptr %3, i32 0, i32 0
  store ptr null, ptr %px4, align 8, !tbaa !78
  ret void
}

; Function Attrs: mustprogress nounwind uwtable
define linkonce_odr void @_ZNSt6vectorIN5boost10shared_ptrIN8QuantLib8DividendEEESaIS4_EEC2Ev(ptr noundef nonnull align 8 dereferenceable(24) %this) unnamed_addr #1 comdat align 2 {
entry:
  %this.addr = alloca ptr, align 8
  store ptr %this, ptr %this.addr, align 8, !tbaa !3
  %this1 = load ptr, ptr %this.addr, align 8
  call void @_ZNSt12_Vector_baseIN5boost10shared_ptrIN8QuantLib8DividendEEESaIS4_EEC2Ev(ptr noundef nonnull align 8 dereferenceable(24) %this1) #12
  ret void
}

; Function Attrs: mustprogress uwtable
define void @_ZN8QuantLib21FdHestonBarrierEngineC2ERKN5boost10shared_ptrINS_11HestonModelEEEmmmmRKNS_13FdmSchemeDescENS2_INS_21LocalVolTermStructureEEEd(ptr noundef nonnull align 8 dereferenceable(480) %this, ptr noundef nonnull align 8 dereferenceable(16) %model, i64 noundef %tGrid, i64 noundef %xGrid, i64 noundef %vGrid, i64 noundef %dampingSteps, ptr noundef nonnull align 8 dereferenceable(24) %schemeDesc, ptr noundef %leverageFct, double noundef %mixingFactor) unnamed_addr #2 align 2 {
entry:
  %this.addr = alloca ptr, align 8
  %model.addr = alloca ptr, align 8
  %tGrid.addr = alloca i64, align 8
  %xGrid.addr = alloca i64, align 8
  %vGrid.addr = alloca i64, align 8
  %dampingSteps.addr = alloca i64, align 8
  %schemeDesc.addr = alloca ptr, align 8
  %leverageFct.indirect_addr = alloca ptr, align 8
  %mixingFactor.addr = alloca double, align 8
  store ptr %this, ptr %this.addr, align 8, !tbaa !3
  store ptr %model, ptr %model.addr, align 8, !tbaa !3
  store i64 %tGrid, ptr %tGrid.addr, align 8, !tbaa !24
  store i64 %xGrid, ptr %xGrid.addr, align 8, !tbaa !24
  store i64 %vGrid, ptr %vGrid.addr, align 8, !tbaa !24
  store i64 %dampingSteps, ptr %dampingSteps.addr, align 8, !tbaa !24
  store ptr %schemeDesc, ptr %schemeDesc.addr, align 8, !tbaa !3
  store ptr %leverageFct, ptr %leverageFct.indirect_addr, align 8, !tbaa !3
  store double %mixingFactor, ptr %mixingFactor.addr, align 8, !tbaa !26
  %this1 = load ptr, ptr %this.addr, align 8
  %0 = load ptr, ptr %model.addr, align 8, !tbaa !3
  call void @_ZN8QuantLib18GenericModelEngineINS_11HestonModelENS_13BarrierOption9argumentsENS_14OneAssetOption7resultsEEC2ERKN5boost10shared_ptrIS1_EE(ptr noundef nonnull align 8 dereferenceable(376) %this1, ptr noundef nonnull align 8 dereferenceable(16) %0)
  store ptr getelementptr inbounds inrange(-16, 56) ({ [9 x ptr], [6 x ptr] }, ptr @_ZTVN8QuantLib21FdHestonBarrierEngineE, i32 0, i32 0, i32 2), ptr %this1, align 8, !tbaa !20
  %add.ptr = getelementptr inbounds i8, ptr %this1, i64 56
  store ptr getelementptr inbounds inrange(-16, 32) ({ [9 x ptr], [6 x ptr] }, ptr @_ZTVN8QuantLib21FdHestonBarrierEngineE, i32 0, i32 1, i32 2), ptr %add.ptr, align 8, !tbaa !20
  %dividends_ = getelementptr inbounds nuw %"class.QuantLib::FdHestonBarrierEngine", ptr %this1, i32 0, i32 1
  call void @_ZNSt6vectorIN5boost10shared_ptrIN8QuantLib8DividendEEESaIS4_EEC2Ev(ptr noundef nonnull align 8 dereferenceable(24) %dividends_) #12
  %tGrid_ = getelementptr inbounds nuw %"class.QuantLib::FdHestonBarrierEngine", ptr %this1, i32 0, i32 2
  %1 = load i64, ptr %tGrid.addr, align 8, !tbaa !24
  store i64 %1, ptr %tGrid_, align 8, !tbaa !28
  %xGrid_ = getelementptr inbounds nuw %"class.QuantLib::FdHestonBarrierEngine", ptr %this1, i32 0, i32 3
  %2 = load i64, ptr %xGrid.addr, align 8, !tbaa !24
  store i64 %2, ptr %xGrid_, align 8, !tbaa !72
  %vGrid_ = getelementptr inbounds nuw %"class.QuantLib::FdHestonBarrierEngine", ptr %this1, i32 0, i32 4
  %3 = load i64, ptr %vGrid.addr, align 8, !tbaa !24
  store i64 %3, ptr %vGrid_, align 8, !tbaa !73
  %dampingSteps_ = getelementptr inbounds nuw %"class.QuantLib::FdHestonBarrierEngine", ptr %this1, i32 0, i32 5
  %4 = load i64, ptr %dampingSteps.addr, align 8, !tbaa !24
  store i64 %4, ptr %dampingSteps_, align 8, !tbaa !74
  %schemeDesc_ = getelementptr inbounds nuw %"class.QuantLib::FdHestonBarrierEngine", ptr %this1, i32 0, i32 6
  %5 = load ptr, ptr %schemeDesc.addr, align 8, !tbaa !3
  call void @llvm.memcpy.p0.p0.i64(ptr align 8 %schemeDesc_, ptr align 8 %5, i64 24, i1 false), !tbaa.struct !75
  %leverageFct_ = getelementptr inbounds nuw %"class.QuantLib::FdHestonBarrierEngine", ptr %this1, i32 0, i32 7
  call void @_ZN5boost10shared_ptrIN8QuantLib21LocalVolTermStructureEEC2EOS3_(ptr noundef nonnull align 8 dereferenceable(16) %leverageFct_, ptr noundef nonnull align 8 dereferenceable(16) %leverageFct) #12
  %mixingFactor_ = getelementptr inbounds nuw %"class.QuantLib::FdHestonBarrierEngine", ptr %this1, i32 0, i32 8
  %6 = load double, ptr %mixingFactor.addr, align 8, !tbaa !26
  store double %6, ptr %mixingFactor_, align 8, !tbaa !77
  ret void
}